; ModuleID = '10/577.c'
source_filename = "10/577.c"
target datalayout = "e-m:e-p270:32:32-p271:32:32-p272:64:64-i64:64-f80:128-n8:16:32:64-S128"
target triple = "x86_64-pc-linux-gnu"

@.str = private unnamed_addr constant [3 x i8] c"%d\00", align 1

; Function Attrs: noinline nounwind uwtable
define dso_local i32 @main() #0 {
  %1 = alloca i32, align 4
  %2 = alloca i32, align 4
  %3 = alloca i32, align 4
  %4 = alloca i32, align 4
  %5 = alloca i32, align 4
  %6 = alloca [25 x i32], align 16
  %7 = alloca [25 x i32], align 16
  store i32 0, i32* %1, align 4
  %8 = call i32 (i8*, ...) @__isoc99_scanf(i8* getelementptr inbounds ([3 x i8], [3 x i8]* @.str, i64 0, i64 0), i32* %2)
  store i32 0, i32* %3, align 4
  br label %9

9:                                                ; preds = %18, %0
  %10 = load i32, i32* %3, align 4
  %11 = load i32, i32* %2, align 4
  %12 = icmp slt i32 %10, %11
  br i1 %12, label %13, label %21

13:                                               ; preds = %9
  %14 = load i32, i32* %3, align 4
  %15 = sext i32 %14 to i64
  %16 = getelementptr inbounds [25 x i32], [25 x i32]* %6, i64 0, i64 %15
  %17 = call i32 (i8*, ...) @__isoc99_scanf(i8* getelementptr inbounds ([3 x i8], [3 x i8]* @.str, i64 0, i64 0), i32* %16)
  br label %18

18:                                               ; preds = %13
  %19 = load i32, i32* %3, align 4
  %20 = add nsw i32 %19, 1
  store i32 %20, i32* %3, align 4
  br label %9

21:                                               ; preds = %9
  %22 = load i32, i32* %2, align 4
  %23 = sub nsw i32 %22, 1
  %24 = sext i32 %23 to i64
  %25 = getelementptr inbounds [25 x i32], [25 x i32]* %7, i64 0, i64 %24
  store i32 1, i32* %25, align 4
  store i32 1, i32* %3, align 4
  br label %26

26:                                               ; preds = %34, %21
  %27 = load i32, i32* %3, align 4
  %28 = load i32, i32* %2, align 4
  %29 = icmp slt i32 %27, %28
  br i1 %29, label %30, label %37

30:                                               ; preds = %26
  %31 = load i32, i32* %3, align 4
  %32 = sext i32 %31 to i64
  %33 = getelementptr inbounds [25 x i32], [25 x i32]* %7, i64 0, i64 %32
  store i32 1, i32* %33, align 4
  br label %34

34:                                               ; preds = %30
  %35 = load i32, i32* %3, align 4
  %36 = add nsw i32 %35, 1
  store i32 %36, i32* %3, align 4
  br label %26

37:                                               ; preds = %26
  %38 = load i32, i32* %2, align 4
  %39 = sub nsw i32 %38, 2
  store i32 %39, i32* %3, align 4
  br label %40

40:                                               ; preds = %86, %37
  %41 = load i32, i32* %3, align 4
  %42 = icmp sge i32 %41, 0
  br i1 %42, label %43, label %89

43:                                               ; preds = %40
  %44 = load i32, i32* %2, align 4
  %45 = sub nsw i32 %44, 1
  store i32 %45, i32* %4, align 4
  br label %46

46:                                               ; preds = %82, %43
  %47 = load i32, i32* %4, align 4
  %48 = load i32, i32* %3, align 4
  %49 = add nsw i32 %48, 1
  %50 = icmp sge i32 %47, %49
  br i1 %50, label %51, label %85

51:                                               ; preds = %46
  %52 = load i32, i32* %3, align 4
  %53 = sext i32 %52 to i64
  %54 = getelementptr inbounds [25 x i32], [25 x i32]* %6, i64 0, i64 %53
  %55 = load i32, i32* %54, align 4
  %56 = load i32, i32* %4, align 4
  %57 = sext i32 %56 to i64
  %58 = getelementptr inbounds [25 x i32], [25 x i32]* %6, i64 0, i64 %57
  %59 = load i32, i32* %58, align 4
  %60 = icmp sge i32 %55, %59
  br i1 %60, label %61, label %81

61:                                               ; preds = %51
  %62 = load i32, i32* %4, align 4
  %63 = sext i32 %62 to i64
  %64 = getelementptr inbounds [25 x i32], [25 x i32]* %7, i64 0, i64 %63
  %65 = load i32, i32* %64, align 4
  %66 = add nsw i32 %65, 1
  %67 = load i32, i32* %3, align 4
  %68 = sext i32 %67 to i64
  %69 = getelementptr inbounds [25 x i32], [25 x i32]* %7, i64 0, i64 %68
  %70 = load i32, i32* %69, align 4
  %71 = icmp sge i32 %66, %70
  br i1 %71, label %72, label %81

72:                                               ; preds = %61
  %73 = load i32, i32* %4, align 4
  %74 = sext i32 %73 to i64
  %75 = getelementptr inbounds [25 x i32], [25 x i32]* %7, i64 0, i64 %74
  %76 = load i32, i32* %75, align 4
  %77 = add nsw i32 %76, 1
  %78 = load i32, i32* %3, align 4
  %79 = sext i32 %78 to i64
  %80 = getelementptr inbounds [25 x i32], [25 x i32]* %7, i64 0, i64 %79
  store i32 %77, i32* %80, align 4
  br label %81

81:                                               ; preds = %72, %61, %51
  br label %82

82:                                               ; preds = %81
  %83 = load i32, i32* %4, align 4
  %84 = add nsw i32 %83, -1
  store i32 %84, i32* %4, align 4
  br label %46

85:                                               ; preds = %46
  br label %86

86:                                               ; preds = %85
  %87 = load i32, i32* %3, align 4
  %88 = add nsw i32 %87, -1
  store i32 %88, i32* %3, align 4
  br label %40

89:                                               ; preds = %40
  %90 = getelementptr inbounds [25 x i32], [25 x i32]* %7, i64 0, i64 0
  %91 = load i32, i32* %90, align 16
  store i32 %91, i32* %5, align 4
  store i32 1, i32* %3, align 4
  br label %92

92:                                               ; preds = %109, %89
  %93 = load i32, i32* %3, align 4
  %94 = load i32, i32* %2, align 4
  %95 = icmp slt i32 %93, %94
  br i1 %95, label %96, label %112

96:                                               ; preds = %92
  %97 = load i32, i32* %3, align 4
  %98 = sext i32 %97 to i64
  %99 = getelementptr inbounds [25 x i32], [25 x i32]* %7, i64 0, i64 %98
  %100 = load i32, i32* %99, align 4
  %101 = load i32, i32* %5, align 4
  %102 = icmp sgt i32 %100, %101
  br i1 %102, label %103, label %108

103:                                              ; preds = %96
  %104 = load i32, i32* %3, align 4
  %105 = sext i32 %104 to i64
  %106 = getelementptr inbounds [25 x i32], [25 x i32]* %7, i64 0, i64 %105
  %107 = load i32, i32* %106, align 4
  store i32 %107, i32* %5, align 4
  br label %108

108:                                              ; preds = %103, %96
  br label %109

109:                                              ; preds = %108
  %110 = load i32, i32* %3, align 4
  %111 = add nsw i32 %110, 1
  store i32 %111, i32* %3, align 4
  br label %92

112:                                              ; preds = %92
  %113 = load i32, i32* %5, align 4
  %114 = call i32 (i8*, ...) @printf(i8* getelementptr inbounds ([3 x i8], [3 x i8]* @.str, i64 0, i64 0), i32 %113)
  %115 = load i32, i32* %1, align 4
  ret i32 %115
}

declare dso_local i32 @__isoc99_scanf(i8*, ...) #1

declare dso_local i32 @printf(i8*, ...) #1


!llvm.module.flags = !{!0}
!llvm.ident = !{!1}

!0 = !{i32 1, !"wchar_size", i32 4}
!1 = !{!"clang version 10.0.0-4ubuntu1 "}
